target datalayout = "e-m:e-p270:32:32-p271:32:32-p272:64:64-i64:64-i128:128-f80:128-n8:16:32:64-S128"
target triple = "x86_64-pc-linux-gnu"

%"class.smt::simple_relevancy_eh" = type { %"class.smt::relevancy_eh", ptr }
%"class.smt::relevancy_eh" = type { ptr }

; Function Attrs: mustprogress uwtable
define hidden void @_ZN3smt19simple_relevancy_ehclERNS_20relevancy_propagatorE(ptr noundef nonnull align 8 dereferenceable(16) %0, ptr noundef nonnull align 8 dereferenceable(16) %1) unnamed_addr #6 align 2 {
  %3 = alloca ptr, align 8
  %4 = alloca ptr, align 8
  store ptr %0, ptr %3, align 8, !tbaa !46
  store ptr %1, ptr %4, align 8, !tbaa !30
  %5 = load ptr, ptr %3, align 8
  %6 = load ptr, ptr %4, align 8, !tbaa !30
  %7 = getelementptr inbounds nuw %"class.smt::simple_relevancy_eh", ptr %5, i32 0, i32 1
  %8 = load ptr, ptr %7, align 8, !tbaa !48
  %9 = load ptr, ptr %6, align 8, !tbaa !34
  %10 = getelementptr inbounds ptr, ptr %9, i64 6
  %11 = load ptr, ptr %10, align 8
  call void %11(ptr noundef nonnull align 8 dereferenceable(16) %6, ptr noundef %8)
  ret void
}